; Function Attrs: nounwind uwtable
define ptr @l_Lake_Toml_recNodeWithAntiquot(ptr noundef %0, ptr noundef %1, ptr noundef %2, i8 noundef zeroext %3) local_unnamed_addr #1 {
  %5 = ptrtoint ptr %1 to i64
  %6 = and i64 %5, 1
  %.not = icmp eq i64 %6, 0
  br i1 %.not, label %7, label %lean_inc.exit20

7:                                                ; preds = %4
  %.val.i = load i32, ptr %1, align 4, !tbaa !4
  %8 = icmp sgt i32 %.val.i, 0
  br i1 %8, label %9, label %11, !prof !9

9:                                                ; preds = %7
  %10 = add nuw i32 %.val.i, 1
  store i32 %10, ptr %1, align 4, !tbaa !4
  br label %lean_inc.exit20

11:                                               ; preds = %7
  %.not.i = icmp eq i32 %.val.i, 0
  br i1 %.not.i, label %lean_inc.exit20, label %12

12:                                               ; preds = %11
  tail call void @lean_inc_ref_cold(ptr noundef nonnull %1) #4
  br label %lean_inc.exit20

lean_inc.exit20:                                  ; preds = %12, %11, %9, %4
  %13 = tail call ptr @l_Lean_Parser_mkAntiquot(ptr noundef %0, ptr noundef %1, i8 noundef zeroext %3, i8 noundef zeroext 1) #4
  %14 = zext i8 %3 to i64
  %15 = shl nuw nsw i64 %14, 1
  %16 = or disjoint i64 %15, 1
  %17 = inttoptr i64 %16 to ptr
  br i1 %.not, label %18, label %lean_inc.exit

18:                                               ; preds = %lean_inc.exit20
  %.val.i21 = load i32, ptr %1, align 4, !tbaa !4
  %19 = icmp sgt i32 %.val.i21, 0
  br i1 %19, label %20, label %22, !prof !9

20:                                               ; preds = %18
  %21 = add nuw i32 %.val.i21, 1
  store i32 %21, ptr %1, align 4, !tbaa !4
  br label %lean_inc.exit

22:                                               ; preds = %18
  %.not.i22 = icmp eq i32 %.val.i21, 0
  br i1 %.not.i22, label %lean_inc.exit, label %23

23:                                               ; preds = %22
  tail call void @lean_inc_ref_cold(ptr noundef nonnull %1) #4
  br label %lean_inc.exit

lean_inc.exit:                                    ; preds = %23, %22, %20, %lean_inc.exit20
  tail call void @lean_inc_heartbeat() #4
  %24 = tail call noalias ptr @mi_malloc_small(i64 noundef 56) #4
  %25 = icmp eq ptr %24, null
  br i1 %25, label %26, label %lean_alloc_closure.exit

26:                                               ; preds = %lean_inc.exit
  tail call void @lean_internal_panic_out_of_memory() #5
  unreachable

lean_alloc_closure.exit:                          ; preds = %lean_inc.exit
  %27 = getelementptr inbounds nuw i8, ptr %24, i64 4
  store i32 1, ptr %24, align 4, !tbaa !4
  store i32 -184549320, ptr %27, align 4
  %28 = getelementptr inbounds nuw i8, ptr %24, i64 8
  store ptr @l_Lake_Toml_recNodeWithAntiquot_go___boxed, ptr %28, align 8, !tbaa !10
  %29 = getelementptr inbounds nuw i8, ptr %24, i64 16
  store i16 5, ptr %29, align 8, !tbaa !12
  %30 = getelementptr inbounds nuw i8, ptr %24, i64 18
  store i16 4, ptr %30, align 2, !tbaa !12
  %31 = getelementptr inbounds nuw i8, ptr %24, i64 24
  store ptr %0, ptr %31, align 8, !tbaa !10
  %32 = getelementptr inbounds nuw i8, ptr %24, i64 32
  store ptr %1, ptr %32, align 8, !tbaa !10
  %33 = getelementptr inbounds nuw i8, ptr %24, i64 40
  store ptr %2, ptr %33, align 8, !tbaa !10
  %34 = getelementptr inbounds nuw i8, ptr %24, i64 48
  store ptr %17, ptr %34, align 8, !tbaa !10
  tail call void @lean_inc_heartbeat() #4
  %35 = tail call noalias ptr @mi_malloc_small(i64 noundef 32) #4
  %36 = icmp eq ptr %35, null
  br i1 %36, label %37, label %lean_alloc_closure.exit.i

37:                                               ; preds = %lean_alloc_closure.exit
  tail call void @lean_internal_panic_out_of_memory() #5
  unreachable

lean_alloc_closure.exit.i:                        ; preds = %lean_alloc_closure.exit
  %38 = getelementptr inbounds nuw i8, ptr %35, i64 4
  store i32 1, ptr %35, align 4, !tbaa !4
  store i32 -184549344, ptr %38, align 4
  %39 = getelementptr inbounds nuw i8, ptr %35, i64 8
  store ptr @l_Lake_Toml_recNodeFn, ptr %39, align 8, !tbaa !10
  %40 = getelementptr inbounds nuw i8, ptr %35, i64 16
  store i16 3, ptr %40, align 8, !tbaa !12
  %41 = getelementptr inbounds nuw i8, ptr %35, i64 18
  store i16 1, ptr %41, align 2, !tbaa !12
  %42 = getelementptr inbounds nuw i8, ptr %35, i64 24
  store ptr %24, ptr %42, align 8, !tbaa !10
  %43 = load ptr, ptr @l_Lake_Toml_atom___closed__2, align 8, !tbaa !10
  tail call void @lean_inc_heartbeat() #4
  %44 = tail call noalias ptr @mi_malloc_small(i64 noundef 24) #4
  %45 = icmp eq ptr %44, null
  br i1 %45, label %46, label %l_Lake_Toml_recNode.exit

46:                                               ; preds = %lean_alloc_closure.exit.i
  tail call void @lean_internal_panic_out_of_memory() #5
  unreachable

l_Lake_Toml_recNode.exit:                         ; preds = %lean_alloc_closure.exit.i
  %47 = getelementptr inbounds nuw i8, ptr %44, i64 4
  store i32 1, ptr %44, align 4, !tbaa !4
  store i32 131096, ptr %47, align 4
  %48 = getelementptr inbounds nuw i8, ptr %44, i64 8
  store ptr %43, ptr %48, align 8, !tbaa !10
  %49 = getelementptr inbounds nuw i8, ptr %44, i64 16
  store ptr %35, ptr %49, align 8, !tbaa !10
  %50 = tail call ptr @l_Lean_Parser_withAntiquot(ptr noundef %13, ptr noundef nonnull %44) #4
  %51 = tail call ptr @l_Lean_Parser_withCache(ptr noundef %1, ptr noundef %50) #4
  ret ptr %51
}